; Function Attrs: mustprogress nofree norecurse nosync nounwind willreturn memory(readwrite, inaccessiblemem: none) uwtable
define hidden void @_ZN6google8protobuf8internal14ArenaStringPtr12ClearToEmptyEv(ptr noundef nonnull readonly align 8 captures(none) dereferenceable(8) %0) local_unnamed_addr #9 align 2 {
  %2 = load ptr, ptr %0, align 8, !tbaa !16
  %3 = icmp eq ptr %2, @_ZN6google8protobuf8internal26fixed_address_empty_stringB5cxx11E
  br i1 %3, label %10, label %4

4:                                                ; preds = %1
  %5 = ptrtoint ptr %2 to i64
  %6 = and i64 %5, -2
  %7 = inttoptr i64 %6 to ptr
  %8 = getelementptr inbounds nuw i8, ptr %7, i64 8
  store i64 0, ptr %8, align 8, !tbaa !15
  %9 = load ptr, ptr %7, align 8, !tbaa !12
  store i8 0, ptr %9, align 1, !tbaa !14
  br label %10

10:                                               ; preds = %1, %4
  ret void
}